; Function Attrs: nounwind uwtable
define noundef ptr @Abc_NtkCreateNodeAnd(ptr noundef %0, ptr noundef readonly captures(none) %1) local_unnamed_addr #0 {
  %3 = tail call noundef ptr @Abc_NtkCreateObj(ptr noundef %0, i32 noundef 7)
  %4 = getelementptr inbounds nuw i8, ptr %1, i64 4
  %5 = load i32, ptr %4, align 4, !tbaa !32
  %6 = icmp sgt i32 %5, 0
  br i1 %6, label %.lr.ph, label %._crit_edge

.lr.ph:                                           ; preds = %2
  %7 = getelementptr inbounds nuw i8, ptr %1, i64 8
  br label %8

8:                                                ; preds = %.lr.ph, %8
  %indvars.iv = phi i64 [ 0, %.lr.ph ], [ %indvars.iv.next, %8 ]
  %9 = load ptr, ptr %7, align 8, !tbaa !35
  %10 = getelementptr inbounds nuw ptr, ptr %9, i64 %indvars.iv
  %11 = load ptr, ptr %10, align 8, !tbaa !36
  tail call void @Abc_ObjAddFanin(ptr noundef %3, ptr noundef %11) #10
  %indvars.iv.next = add nuw nsw i64 %indvars.iv, 1
  %12 = load i32, ptr %4, align 4, !tbaa !32
  %13 = sext i32 %12 to i64
  %14 = icmp slt i64 %indvars.iv.next, %13
  br i1 %14, label %8, label %._crit_edge, !llvm.loop !70

._crit_edge:                                      ; preds = %8, %2
  %.lcssa = phi i32 [ %5, %2 ], [ %12, %8 ]
  %15 = getelementptr i8, ptr %0, i64 4
  %.val25 = load i32, ptr %15, align 4, !tbaa !51
  switch i32 %.val25, label %31 [
    i32 1, label %16
    i32 2, label %21
    i32 3, label %26
  ]

16:                                               ; preds = %._crit_edge
  %17 = getelementptr inbounds nuw i8, ptr %0, i64 256
  %18 = load ptr, ptr %17, align 8, !tbaa !52
  %19 = tail call ptr @Abc_SopCreateAnd(ptr noundef %18, i32 noundef %.lcssa, ptr noundef null) #10
  %20 = getelementptr inbounds nuw i8, ptr %3, i64 56
  store ptr %19, ptr %20, align 8, !tbaa !43
  br label %31

21:                                               ; preds = %._crit_edge
  %22 = getelementptr inbounds nuw i8, ptr %0, i64 256
  %23 = load ptr, ptr %22, align 8, !tbaa !52
  %24 = tail call ptr @Extra_bddCreateAnd(ptr noundef %23, i32 noundef %.lcssa) #10
  %25 = getelementptr inbounds nuw i8, ptr %3, i64 56
  store ptr %24, ptr %25, align 8, !tbaa !43
  tail call void @Cudd_Ref(ptr noundef %24) #10
  br label %31

26:                                               ; preds = %._crit_edge
  %27 = getelementptr inbounds nuw i8, ptr %0, i64 256
  %28 = load ptr, ptr %27, align 8, !tbaa !52
  %29 = tail call ptr @Hop_CreateAnd(ptr noundef %28, i32 noundef %.lcssa) #10
  %30 = getelementptr inbounds nuw i8, ptr %3, i64 56
  store ptr %29, ptr %30, align 8, !tbaa !43
  br label %31

31:                                               ; preds = %._crit_edge, %21, %26, %16
  ret ptr %3
}